target datalayout = "e-m:e-p270:32:32-p271:32:32-p272:64:64-i64:64-i128:128-f80:128-n8:16:32:64-S128"
target triple = "x86_64-pc-linux-gnu"

%"class.cv::Size_.37" = type { float, float }
%"struct.cv::CirclesGridFinderParameters" = type { %"class.cv::Size_.37", float, i32, i32, i32, float, float, float, float, float, float, float, float, i32, float, float }

; Function Attrs: mustprogress nounwind uwtable
define linkonce_odr hidden void @_ZN2cv5Size_IfEC2Eff(ptr noundef nonnull align 4 dereferenceable(8) %0, float noundef %1, float noundef %2) unnamed_addr #5 comdat align 2 {
  %4 = alloca ptr, align 8
  %5 = alloca float, align 4
  %6 = alloca float, align 4
  store ptr %0, ptr %4, align 8
  store float %1, ptr %5, align 4
  store float %2, ptr %6, align 4
  %7 = load ptr, ptr %4, align 8
  %8 = getelementptr inbounds %"class.cv::Size_.37", ptr %7, i32 0, i32 0
  %9 = load float, ptr %5, align 4
  store float %9, ptr %8, align 4
  %10 = getelementptr inbounds %"class.cv::Size_.37", ptr %7, i32 0, i32 1
  %11 = load float, ptr %6, align 4
  store float %11, ptr %10, align 4
  ret void
}

; Function Attrs: mustprogress nounwind uwtable
define linkonce_odr hidden void @_ZN2cv5Size_IfEC2Ev(ptr noundef nonnull align 4 dereferenceable(8) %0) unnamed_addr #5 comdat align 2 {
  %2 = alloca ptr, align 8
  store ptr %0, ptr %2, align 8
  %3 = load ptr, ptr %2, align 8
  %4 = getelementptr inbounds %"class.cv::Size_.37", ptr %3, i32 0, i32 0
  store float 0.000000e+00, ptr %4, align 4
  %5 = getelementptr inbounds %"class.cv::Size_.37", ptr %3, i32 0, i32 1
  store float 0.000000e+00, ptr %5, align 4
  ret void
}

; Function Attrs: mustprogress uwtable
define void @_ZN2cv27CirclesGridFinderParametersC2Ev(ptr noundef nonnull align 4 dereferenceable(68) %0) unnamed_addr #6 align 2 {
  %2 = alloca ptr, align 8
  %3 = alloca %"class.cv::Size_.37", align 4
  store ptr %0, ptr %2, align 8
  %4 = load ptr, ptr %2, align 8
  %5 = getelementptr inbounds %"struct.cv::CirclesGridFinderParameters", ptr %4, i32 0, i32 0
  call void @_ZN2cv5Size_IfEC2Ev(ptr noundef nonnull align 4 dereferenceable(8) %5)
  %6 = getelementptr inbounds %"struct.cv::CirclesGridFinderParameters", ptr %4, i32 0, i32 1
  store float 1.000000e+01, ptr %6, align 4
  call void @_ZN2cv5Size_IfEC2Eff(ptr noundef nonnull align 4 dereferenceable(8) %3, float noundef 1.600000e+01, float noundef 1.600000e+01)
  %7 = getelementptr inbounds %"struct.cv::CirclesGridFinderParameters", ptr %4, i32 0, i32 0
  call void @llvm.memcpy.p0.p0.i64(ptr align 4 %7, ptr align 4 %3, i64 8, i1 false)
  %8 = getelementptr inbounds %"struct.cv::CirclesGridFinderParameters", ptr %4, i32 0, i32 3
  store i32 20, ptr %8, align 4
  %9 = getelementptr inbounds %"struct.cv::CirclesGridFinderParameters", ptr %4, i32 0, i32 2
  store i32 100, ptr %9, align 4
  %10 = getelementptr inbounds %"struct.cv::CirclesGridFinderParameters", ptr %4, i32 0, i32 11
  store float 0x3FF19999A0000000, ptr %10, align 4
  %11 = getelementptr inbounds %"struct.cv::CirclesGridFinderParameters", ptr %4, i32 0, i32 4
  store i32 1, ptr %11, align 4
  %12 = getelementptr inbounds %"struct.cv::CirclesGridFinderParameters", ptr %4, i32 0, i32 5
  store float 9.000000e+00, ptr %12, align 4
  %13 = getelementptr inbounds %"struct.cv::CirclesGridFinderParameters", ptr %4, i32 0, i32 6
  store float 1.000000e+00, ptr %13, align 4
  %14 = getelementptr inbounds %"struct.cv::CirclesGridFinderParameters", ptr %4, i32 0, i32 7
  store float 0xBFE3333340000000, ptr %14, align 4
  %15 = getelementptr inbounds %"struct.cv::CirclesGridFinderParameters", ptr %4, i32 0, i32 9
  store float 1.000000e+00, ptr %15, align 4
  %16 = getelementptr inbounds %"struct.cv::CirclesGridFinderParameters", ptr %4, i32 0, i32 10
  store float 0xBFE3333340000000, ptr %16, align 4
  %17 = getelementptr inbounds %"struct.cv::CirclesGridFinderParameters", ptr %4, i32 0, i32 8
  store float 1.000000e+04, ptr %17, align 4
  %18 = getelementptr inbounds %"struct.cv::CirclesGridFinderParameters", ptr %4, i32 0, i32 12
  store float 5.000000e+00, ptr %18, align 4
  %19 = getelementptr inbounds %"struct.cv::CirclesGridFinderParameters", ptr %4, i32 0, i32 13
  store i32 0, ptr %19, align 4
  %20 = getelementptr inbounds %"struct.cv::CirclesGridFinderParameters", ptr %4, i32 0, i32 14
  store float 1.000000e+00, ptr %20, align 4
  %21 = getelementptr inbounds %"struct.cv::CirclesGridFinderParameters", ptr %4, i32 0, i32 14
  %22 = load float, ptr %21, align 4
  %23 = fdiv float %22, 2.000000e+00
  %24 = getelementptr inbounds %"struct.cv::CirclesGridFinderParameters", ptr %4, i32 0, i32 15
  store float %23, ptr %24, align 4
  ret void
}