; Function Attrs: mustprogress nofree norecurse nosync nounwind willreturn memory(argmem: write) uwtable
define void @_ZN2cv27CirclesGridFinderParametersC2Ev(ptr nocapture noundef nonnull writeonly align 4 dereferenceable(68) %0) unnamed_addr #13 align 2 {
  %2 = getelementptr inbounds i8, ptr %0, i64 4
  %3 = getelementptr inbounds i8, ptr %0, i64 8
  store float 1.000000e+01, ptr %3, align 4
  store i32 1098907648, ptr %0, align 4
  store i32 1098907648, ptr %2, align 4
  %4 = getelementptr inbounds i8, ptr %0, i64 16
  store i32 20, ptr %4, align 4
  %5 = getelementptr inbounds i8, ptr %0, i64 12
  store i32 100, ptr %5, align 4
  %6 = getelementptr inbounds i8, ptr %0, i64 20
  store i32 1, ptr %6, align 4
  %7 = getelementptr inbounds i8, ptr %0, i64 24
  %8 = getelementptr inbounds i8, ptr %0, i64 40
  store <4 x float> <float 9.000000e+00, float 1.000000e+00, float 0xBFE3333340000000, float 1.000000e+04>, ptr %7, align 4
  store <4 x float> <float 1.000000e+00, float 0xBFE3333340000000, float 0x3FF19999A0000000, float 5.000000e+00>, ptr %8, align 4
  %9 = getelementptr inbounds i8, ptr %0, i64 56
  store i32 0, ptr %9, align 4
  %10 = getelementptr inbounds i8, ptr %0, i64 60
  store <2 x float> <float 1.000000e+00, float 5.000000e-01>, ptr %10, align 4
  ret void
}